target datalayout = "e-m:e-p270:32:32-p271:32:32-p272:64:64-i64:64-i128:128-f80:128-n8:16:32:64-S128"
target triple = "x86_64-pc-linux-gnu"

%class.btSphereBoxCollisionAlgorithm = type <{ %class.btActivatingCollisionAlgorithm, i8, [7 x i8], ptr, i8, [7 x i8] }>
%class.btActivatingCollisionAlgorithm = type { %class.btCollisionAlgorithm }
%class.btCollisionAlgorithm = type { ptr, ptr }
%struct.btCollisionObjectWrapper = type { ptr, ptr, ptr, ptr, ptr, i32, i32 }
%class.btVector3 = type { [4 x float] }
%class.btTransform = type { %class.btMatrix3x3, %class.btVector3 }
%class.btMatrix3x3 = type { [3 x %class.btVector3] }
%class.btConvexInternalShape = type { %class.btConvexShape, %class.btVector3, %class.btVector3, float, float }
%class.btConvexShape = type { %class.btCollisionShape }
%class.btCollisionShape = type { ptr, i32, ptr, i32, i32 }
%class.btManifoldResult = type <{ %"struct.btDiscreteCollisionDetectorInterface::Result", ptr, ptr, ptr, i32, i32, i32, i32, float, [4 x i8] }>
%"struct.btDiscreteCollisionDetectorInterface::Result" = type { ptr }
%class.btPersistentManifold = type { %struct.btTypedObject, [4 x i8], [4 x %class.btManifoldPoint], ptr, ptr, i32, float, float, i32, i32, i32 }
%struct.btTypedObject = type { i32 }
%class.btManifoldPoint = type <{ %class.btVector3, %class.btVector3, %class.btVector3, %class.btVector3, %class.btVector3, float, float, float, float, float, i32, i32, i32, i32, [4 x i8], ptr, i32, float, float, float, float, float, float, %union.anon.0, %union.anon.1, float, i32, %class.btVector3, %class.btVector3, [4 x i8] }>
%union.anon.0 = type { float }
%union.anon.1 = type { float }
%class.btCollisionObject = type <{ ptr, %class.btTransform, %class.btTransform, %class.btVector3, %class.btVector3, %class.btVector3, i32, float, ptr, ptr, ptr, ptr, i32, i32, i32, i32, i32, float, float, float, float, float, float, float, i32, [4 x i8], ptr, i32, i32, i32, float, float, float, i32, [4 x i8], %class.btAlignedObjectArray, i32, %class.btVector3, [4 x i8] }>
%class.btAlignedObjectArray = type <{ [4 x i8], i32, i32, [4 x i8], ptr, i8, [7 x i8] }>

; Function Attrs: mustprogress nounwind uwtable
define linkonce_odr dso_local noundef nonnull align 4 dereferenceable(64) ptr @_ZNK17btCollisionObject17getWorldTransformEv(ptr noundef nonnull align 8 dereferenceable(372) %0) #1 comdat align 2 {
  %2 = alloca ptr, align 8
  store ptr %0, ptr %2, align 8, !tbaa !65
  %3 = load ptr, ptr %2, align 8
  %4 = getelementptr inbounds nuw %class.btCollisionObject, ptr %3, i32 0, i32 1
  ret ptr %4
}

; Function Attrs: inlinehint mustprogress nounwind uwtable
define linkonce_odr dso_local noundef ptr @_ZNK24btCollisionObjectWrapper18getCollisionObjectEv(ptr noundef nonnull align 8 dereferenceable(48) %0) #5 comdat align 2 {
  %2 = alloca ptr, align 8
  store ptr %0, ptr %2, align 8, !tbaa !18
  %3 = load ptr, ptr %2, align 8
  %4 = getelementptr inbounds nuw %struct.btCollisionObjectWrapper, ptr %3, i32 0, i32 2
  %5 = load ptr, ptr %4, align 8, !tbaa !34
  ret ptr %5
}

; Function Attrs: inlinehint mustprogress nounwind uwtable
define linkonce_odr dso_local noundef ptr @_ZNK20btPersistentManifold8getBody0Ev(ptr noundef nonnull align 8 dereferenceable(880) %0) #5 comdat align 2 {
  %2 = alloca ptr, align 8
  store ptr %0, ptr %2, align 8, !tbaa !14
  %3 = load ptr, ptr %2, align 8
  %4 = getelementptr inbounds nuw %class.btPersistentManifold, ptr %3, i32 0, i32 3
  %5 = load ptr, ptr %4, align 8, !tbaa !70
  ret ptr %5
}

; Function Attrs: inlinehint mustprogress nounwind uwtable
define linkonce_odr dso_local noundef nonnull align 4 dereferenceable(4) ptr @_ZNK9btVector34getXEv(ptr noundef nonnull align 4 dereferenceable(16) %0) #5 comdat align 2 {
  %2 = alloca ptr, align 8
  store ptr %0, ptr %2, align 8, !tbaa !48
  %3 = load ptr, ptr %2, align 8
  %4 = getelementptr inbounds nuw %class.btVector3, ptr %3, i32 0, i32 0
  %5 = getelementptr inbounds [4 x float], ptr %4, i64 0, i64 0
  ret ptr %5
}

; Function Attrs: inlinehint mustprogress uwtable
define linkonce_odr dso_local void @_ZN16btManifoldResult20refreshContactPointsEv(ptr noundef nonnull align 8 dereferenceable(52) %0) #11 comdat align 2 {
  %2 = alloca ptr, align 8
  %3 = alloca i8, align 1
  store ptr %0, ptr %2, align 8, !tbaa !41
  %4 = load ptr, ptr %2, align 8
  %5 = getelementptr inbounds nuw %class.btManifoldResult, ptr %4, i32 0, i32 1
  %6 = load ptr, ptr %5, align 8, !tbaa !53
  %7 = call noundef i32 @_ZNK20btPersistentManifold14getNumContactsEv(ptr noundef nonnull align 8 dereferenceable(880) %6)
  %8 = icmp ne i32 %7, 0
  br i1 %8, label %10, label %9

9:                                                ; preds = %1
  br label %44

10:                                               ; preds = %1
  call void @llvm.lifetime.start.p0(i64 1, ptr %3) #14
  %11 = getelementptr inbounds nuw %class.btManifoldResult, ptr %4, i32 0, i32 1
  %12 = load ptr, ptr %11, align 8, !tbaa !53
  %13 = call noundef ptr @_ZNK20btPersistentManifold8getBody0Ev(ptr noundef nonnull align 8 dereferenceable(880) %12)
  %14 = getelementptr inbounds nuw %class.btManifoldResult, ptr %4, i32 0, i32 2
  %15 = load ptr, ptr %14, align 8, !tbaa !63
  %16 = call noundef ptr @_ZNK24btCollisionObjectWrapper18getCollisionObjectEv(ptr noundef nonnull align 8 dereferenceable(48) %15)
  %17 = icmp ne ptr %13, %16
  %18 = zext i1 %17 to i8
  store i8 %18, ptr %3, align 1, !tbaa !20
  %19 = load i8, ptr %3, align 1, !tbaa !20, !range !30, !noundef !31
  %20 = trunc i8 %19 to i1
  br i1 %20, label %21, label %32

21:                                               ; preds = %10
  %22 = getelementptr inbounds nuw %class.btManifoldResult, ptr %4, i32 0, i32 1
  %23 = load ptr, ptr %22, align 8, !tbaa !53
  %24 = getelementptr inbounds nuw %class.btManifoldResult, ptr %4, i32 0, i32 3
  %25 = load ptr, ptr %24, align 8, !tbaa !64
  %26 = call noundef ptr @_ZNK24btCollisionObjectWrapper18getCollisionObjectEv(ptr noundef nonnull align 8 dereferenceable(48) %25)
  %27 = call noundef nonnull align 4 dereferenceable(64) ptr @_ZNK17btCollisionObject17getWorldTransformEv(ptr noundef nonnull align 8 dereferenceable(372) %26)
  %28 = getelementptr inbounds nuw %class.btManifoldResult, ptr %4, i32 0, i32 2
  %29 = load ptr, ptr %28, align 8, !tbaa !63
  %30 = call noundef ptr @_ZNK24btCollisionObjectWrapper18getCollisionObjectEv(ptr noundef nonnull align 8 dereferenceable(48) %29)
  %31 = call noundef nonnull align 4 dereferenceable(64) ptr @_ZNK17btCollisionObject17getWorldTransformEv(ptr noundef nonnull align 8 dereferenceable(372) %30)
  call void @_ZN20btPersistentManifold20refreshContactPointsERK11btTransformS2_(ptr noundef nonnull align 8 dereferenceable(880) %23, ptr noundef nonnull align 4 dereferenceable(64) %27, ptr noundef nonnull align 4 dereferenceable(64) %31)
  br label %43

32:                                               ; preds = %10
  %33 = getelementptr inbounds nuw %class.btManifoldResult, ptr %4, i32 0, i32 1
  %34 = load ptr, ptr %33, align 8, !tbaa !53
  %35 = getelementptr inbounds nuw %class.btManifoldResult, ptr %4, i32 0, i32 2
  %36 = load ptr, ptr %35, align 8, !tbaa !63
  %37 = call noundef ptr @_ZNK24btCollisionObjectWrapper18getCollisionObjectEv(ptr noundef nonnull align 8 dereferenceable(48) %36)
  %38 = call noundef nonnull align 4 dereferenceable(64) ptr @_ZNK17btCollisionObject17getWorldTransformEv(ptr noundef nonnull align 8 dereferenceable(372) %37)
  %39 = getelementptr inbounds nuw %class.btManifoldResult, ptr %4, i32 0, i32 3
  %40 = load ptr, ptr %39, align 8, !tbaa !64
  %41 = call noundef ptr @_ZNK24btCollisionObjectWrapper18getCollisionObjectEv(ptr noundef nonnull align 8 dereferenceable(48) %40)
  %42 = call noundef nonnull align 4 dereferenceable(64) ptr @_ZNK17btCollisionObject17getWorldTransformEv(ptr noundef nonnull align 8 dereferenceable(372) %41)
  call void @_ZN20btPersistentManifold20refreshContactPointsERK11btTransformS2_(ptr noundef nonnull align 8 dereferenceable(880) %34, ptr noundef nonnull align 4 dereferenceable(64) %38, ptr noundef nonnull align 4 dereferenceable(64) %42)
  br label %43

43:                                               ; preds = %32, %21
  call void @llvm.lifetime.end.p0(i64 1, ptr %3) #14
  br label %44

44:                                               ; preds = %43, %9
  ret void
}

; Function Attrs: inlinehint mustprogress nounwind uwtable
define linkonce_odr dso_local noundef i32 @_ZNK20btPersistentManifold14getNumContactsEv(ptr noundef nonnull align 8 dereferenceable(880) %0) #5 comdat align 2 {
  %2 = alloca ptr, align 8
  store ptr %0, ptr %2, align 8, !tbaa !14
  %3 = load ptr, ptr %2, align 8
  %4 = getelementptr inbounds nuw %class.btPersistentManifold, ptr %3, i32 0, i32 5
  %5 = load i32, ptr %4, align 8, !tbaa !60
  ret i32 %5
}

; Function Attrs: mustprogress nounwind uwtable
define linkonce_odr dso_local void @_ZN16btManifoldResult21setPersistentManifoldEP20btPersistentManifold(ptr noundef nonnull align 8 dereferenceable(52) %0, ptr noundef %1) #1 comdat align 2 {
  %3 = alloca ptr, align 8
  %4 = alloca ptr, align 8
  store ptr %0, ptr %3, align 8, !tbaa !41
  store ptr %1, ptr %4, align 8, !tbaa !14
  %5 = load ptr, ptr %3, align 8
  %6 = load ptr, ptr %4, align 8, !tbaa !14
  %7 = getelementptr inbounds nuw %class.btManifoldResult, ptr %5, i32 0, i32 1
  store ptr %6, ptr %7, align 8, !tbaa !53
  ret void
}

; Function Attrs: mustprogress uwtable
define linkonce_odr dso_local noundef float @_ZNK13btSphereShape9getRadiusEv(ptr noundef nonnull align 8 dereferenceable(72) %0) #2 comdat align 2 {
  %2 = alloca ptr, align 8
  store ptr %0, ptr %2, align 8, !tbaa !44
  %3 = load ptr, ptr %2, align 8
  %4 = getelementptr inbounds nuw %class.btConvexInternalShape, ptr %3, i32 0, i32 2
  %5 = call noundef nonnull align 4 dereferenceable(4) ptr @_ZNK9btVector34getXEv(ptr noundef nonnull align 4 dereferenceable(16) %4)
  %6 = load float, ptr %5, align 4, !tbaa !46
  %7 = getelementptr inbounds nuw %class.btConvexInternalShape, ptr %3, i32 0, i32 1
  %8 = call noundef nonnull align 4 dereferenceable(4) ptr @_ZNK9btVector34getXEv(ptr noundef nonnull align 4 dereferenceable(16) %7)
  %9 = load float, ptr %8, align 4, !tbaa !46
  %10 = fmul float %6, %9
  ret float %10
}

; Function Attrs: inlinehint mustprogress nounwind uwtable
define linkonce_odr dso_local noundef ptr @_ZNK24btCollisionObjectWrapper17getCollisionShapeEv(ptr noundef nonnull align 8 dereferenceable(48) %0) #5 comdat align 2 {
  %2 = alloca ptr, align 8
  store ptr %0, ptr %2, align 8, !tbaa !18
  %3 = load ptr, ptr %2, align 8
  %4 = getelementptr inbounds nuw %struct.btCollisionObjectWrapper, ptr %3, i32 0, i32 1
  %5 = load ptr, ptr %4, align 8, !tbaa !52
  ret ptr %5
}

; Function Attrs: inlinehint mustprogress nounwind uwtable
define linkonce_odr dso_local noundef nonnull align 4 dereferenceable(16) ptr @_ZNK11btTransform9getOriginEv(ptr noundef nonnull align 4 dereferenceable(64) %0) #5 comdat align 2 {
  %2 = alloca ptr, align 8
  store ptr %0, ptr %2, align 8, !tbaa !51
  %3 = load ptr, ptr %2, align 8
  %4 = getelementptr inbounds nuw %class.btTransform, ptr %3, i32 0, i32 1
  ret ptr %4
}

; Function Attrs: inlinehint mustprogress nounwind uwtable
define linkonce_odr dso_local noundef nonnull align 4 dereferenceable(64) ptr @_ZNK24btCollisionObjectWrapper17getWorldTransformEv(ptr noundef nonnull align 8 dereferenceable(48) %0) #5 comdat align 2 {
  %2 = alloca ptr, align 8
  store ptr %0, ptr %2, align 8, !tbaa !18
  %3 = load ptr, ptr %2, align 8
  %4 = getelementptr inbounds nuw %struct.btCollisionObjectWrapper, ptr %3, i32 0, i32 3
  %5 = load ptr, ptr %4, align 8, !tbaa !50
  ret ptr %5
}

; Function Attrs: inlinehint mustprogress nounwind uwtable
define linkonce_odr dso_local void @_ZN9btVector3C2Ev(ptr noundef nonnull align 4 dereferenceable(16) %0) unnamed_addr #5 comdat align 2 {
  %2 = alloca ptr, align 8
  store ptr %0, ptr %2, align 8, !tbaa !48
  ret void
}

; Function Attrs: mustprogress uwtable
define dso_local void @_ZN29btSphereBoxCollisionAlgorithm16processCollisionEPK24btCollisionObjectWrapperS2_RK16btDispatcherInfoP16btManifoldResult(ptr noundef nonnull align 8 dereferenceable(33) %0, ptr noundef %1, ptr noundef %2, ptr noundef nonnull align 8 dereferenceable(49) %3, ptr noundef %4) unnamed_addr #2 align 2 {
  %6 = alloca ptr, align 8
  %7 = alloca ptr, align 8
  %8 = alloca ptr, align 8
  %9 = alloca ptr, align 8
  %10 = alloca ptr, align 8
  %11 = alloca ptr, align 8
  %12 = alloca ptr, align 8
  %13 = alloca %class.btVector3, align 4
  %14 = alloca %class.btVector3, align 4
  %15 = alloca float, align 4
  %16 = alloca %class.btVector3, align 4
  %17 = alloca ptr, align 8
  %18 = alloca float, align 4
  %19 = alloca float, align 4
  store ptr %0, ptr %6, align 8, !tbaa !12
  store ptr %1, ptr %7, align 8, !tbaa !18
  store ptr %2, ptr %8, align 8, !tbaa !18
  store ptr %3, ptr %9, align 8, !tbaa !39
  store ptr %4, ptr %10, align 8, !tbaa !41
  %20 = load ptr, ptr %6, align 8
  %21 = getelementptr inbounds nuw %class.btSphereBoxCollisionAlgorithm, ptr %20, i32 0, i32 3
  %22 = load ptr, ptr %21, align 8, !tbaa !29
  %23 = icmp ne ptr %22, null
  br i1 %23, label %25, label %24

24:                                               ; preds = %5
  br label %80

25:                                               ; preds = %5
  call void @llvm.lifetime.start.p0(i64 8, ptr %11) #14
  %26 = getelementptr inbounds nuw %class.btSphereBoxCollisionAlgorithm, ptr %20, i32 0, i32 4
  %27 = load i8, ptr %26, align 8, !tbaa !32, !range !30, !noundef !31
  %28 = trunc i8 %27 to i1
  br i1 %28, label %29, label %31

29:                                               ; preds = %25
  %30 = load ptr, ptr %8, align 8, !tbaa !18
  br label %33

31:                                               ; preds = %25
  %32 = load ptr, ptr %7, align 8, !tbaa !18
  br label %33

33:                                               ; preds = %31, %29
  %34 = phi ptr [ %30, %29 ], [ %32, %31 ]
  store ptr %34, ptr %11, align 8, !tbaa !18
  call void @llvm.lifetime.start.p0(i64 8, ptr %12) #14
  %35 = getelementptr inbounds nuw %class.btSphereBoxCollisionAlgorithm, ptr %20, i32 0, i32 4
  %36 = load i8, ptr %35, align 8, !tbaa !32, !range !30, !noundef !31
  %37 = trunc i8 %36 to i1
  br i1 %37, label %38, label %40

38:                                               ; preds = %33
  %39 = load ptr, ptr %7, align 8, !tbaa !18
  br label %42

40:                                               ; preds = %33
  %41 = load ptr, ptr %8, align 8, !tbaa !18
  br label %42

42:                                               ; preds = %40, %38
  %43 = phi ptr [ %39, %38 ], [ %41, %40 ]
  store ptr %43, ptr %12, align 8, !tbaa !18
  call void @llvm.lifetime.start.p0(i64 16, ptr %13) #14
  call void @_ZN9btVector3C2Ev(ptr noundef nonnull align 4 dereferenceable(16) %13)
  call void @llvm.lifetime.start.p0(i64 16, ptr %14) #14
  call void @_ZN9btVector3C2Ev(ptr noundef nonnull align 4 dereferenceable(16) %14)
  call void @llvm.lifetime.start.p0(i64 4, ptr %15) #14
  call void @llvm.lifetime.start.p0(i64 16, ptr %16) #14
  %44 = load ptr, ptr %11, align 8, !tbaa !18
  %45 = call noundef nonnull align 4 dereferenceable(64) ptr @_ZNK24btCollisionObjectWrapper17getWorldTransformEv(ptr noundef nonnull align 8 dereferenceable(48) %44)
  %46 = call noundef nonnull align 4 dereferenceable(16) ptr @_ZNK11btTransform9getOriginEv(ptr noundef nonnull align 4 dereferenceable(64) %45)
  call void @llvm.memcpy.p0.p0.i64(ptr align 4 %16, ptr align 4 %46, i64 16, i1 false), !tbaa.struct !43
  call void @llvm.lifetime.start.p0(i64 8, ptr %17) #14
  %47 = load ptr, ptr %11, align 8, !tbaa !18
  %48 = call noundef ptr @_ZNK24btCollisionObjectWrapper17getCollisionShapeEv(ptr noundef nonnull align 8 dereferenceable(48) %47)
  store ptr %48, ptr %17, align 8, !tbaa !44
  call void @llvm.lifetime.start.p0(i64 4, ptr %18) #14
  %49 = load ptr, ptr %17, align 8, !tbaa !44
  %50 = call noundef float @_ZNK13btSphereShape9getRadiusEv(ptr noundef nonnull align 8 dereferenceable(72) %49)
  store float %50, ptr %18, align 4, !tbaa !46
  call void @llvm.lifetime.start.p0(i64 4, ptr %19) #14
  %51 = getelementptr inbounds nuw %class.btSphereBoxCollisionAlgorithm, ptr %20, i32 0, i32 3
  %52 = load ptr, ptr %51, align 8, !tbaa !29
  %53 = call noundef float @_ZNK20btPersistentManifold27getContactBreakingThresholdEv(ptr noundef nonnull align 8 dereferenceable(880) %52)
  store float %53, ptr %19, align 4, !tbaa !46
  %54 = load ptr, ptr %10, align 8, !tbaa !41
  %55 = getelementptr inbounds nuw %class.btSphereBoxCollisionAlgorithm, ptr %20, i32 0, i32 3
  %56 = load ptr, ptr %55, align 8, !tbaa !29
  call void @_ZN16btManifoldResult21setPersistentManifoldEP20btPersistentManifold(ptr noundef nonnull align 8 dereferenceable(52) %54, ptr noundef %56)
  %57 = load ptr, ptr %12, align 8, !tbaa !18
  %58 = load float, ptr %18, align 4, !tbaa !46
  %59 = load float, ptr %19, align 4, !tbaa !46
  %60 = call noundef zeroext i1 @_ZN29btSphereBoxCollisionAlgorithm17getSphereDistanceEPK24btCollisionObjectWrapperR9btVector3S4_RfRKS3_ff(ptr noundef nonnull align 8 dereferenceable(33) %20, ptr noundef %57, ptr noundef nonnull align 4 dereferenceable(16) %13, ptr noundef nonnull align 4 dereferenceable(16) %14, ptr noundef nonnull align 4 dereferenceable(4) %15, ptr noundef nonnull align 4 dereferenceable(16) %16, float noundef %58, float noundef %59)
  br i1 %60, label %61, label %67

61:                                               ; preds = %42
  %62 = load ptr, ptr %10, align 8, !tbaa !41
  %63 = load float, ptr %15, align 4, !tbaa !46
  %64 = load ptr, ptr %62, align 8, !tbaa !22
  %65 = getelementptr inbounds ptr, ptr %64, i64 4
  %66 = load ptr, ptr %65, align 8
  call void %66(ptr noundef nonnull align 8 dereferenceable(52) %62, ptr noundef nonnull align 4 dereferenceable(16) %14, ptr noundef nonnull align 4 dereferenceable(16) %13, float noundef %63)
  br label %67

67:                                               ; preds = %61, %42
  %68 = getelementptr inbounds nuw %class.btSphereBoxCollisionAlgorithm, ptr %20, i32 0, i32 1
  %69 = load i8, ptr %68, align 8, !tbaa !24, !range !30, !noundef !31
  %70 = trunc i8 %69 to i1
  br i1 %70, label %71, label %79

71:                                               ; preds = %67
  %72 = getelementptr inbounds nuw %class.btSphereBoxCollisionAlgorithm, ptr %20, i32 0, i32 3
  %73 = load ptr, ptr %72, align 8, !tbaa !29
  %74 = call noundef i32 @_ZNK20btPersistentManifold14getNumContactsEv(ptr noundef nonnull align 8 dereferenceable(880) %73)
  %75 = icmp ne i32 %74, 0
  br i1 %75, label %76, label %78

76:                                               ; preds = %71
  %77 = load ptr, ptr %10, align 8, !tbaa !41
  call void @_ZN16btManifoldResult20refreshContactPointsEv(ptr noundef nonnull align 8 dereferenceable(52) %77)
  br label %78

78:                                               ; preds = %76, %71
  br label %79

79:                                               ; preds = %78, %67
  call void @llvm.lifetime.end.p0(i64 4, ptr %19) #14
  call void @llvm.lifetime.end.p0(i64 4, ptr %18) #14
  call void @llvm.lifetime.end.p0(i64 8, ptr %17) #14
  call void @llvm.lifetime.end.p0(i64 16, ptr %16) #14
  call void @llvm.lifetime.end.p0(i64 4, ptr %15) #14
  call void @llvm.lifetime.end.p0(i64 16, ptr %14) #14
  call void @llvm.lifetime.end.p0(i64 16, ptr %13) #14
  call void @llvm.lifetime.end.p0(i64 8, ptr %12) #14
  call void @llvm.lifetime.end.p0(i64 8, ptr %11) #14
  br label %80

80:                                               ; preds = %79, %24
  ret void
}