; Function Attrs: mustprogress uwtable
define dso_local void @_ZN29btSphereBoxCollisionAlgorithm16processCollisionEPK24btCollisionObjectWrapperS2_RK16btDispatcherInfoP16btManifoldResult(ptr noundef nonnull readonly align 8 captures(none) dereferenceable(33) %0, ptr noundef readonly captures(none) %1, ptr noundef readonly captures(none) %2, ptr nonnull readnone align 8 captures(none) %3, ptr noundef %4) unnamed_addr #0 align 2 {
  %6 = alloca %class.btVector3, align 4
  %7 = alloca %class.btVector3, align 4
  %8 = alloca float, align 4
  %9 = alloca %class.btVector3, align 4
  %10 = getelementptr inbounds nuw i8, ptr %0, i64 24
  %11 = load ptr, ptr %10, align 8, !tbaa !16
  %.not = icmp eq ptr %11, null
  br i1 %.not, label %60, label %12

12:                                               ; preds = %5
  %13 = getelementptr inbounds nuw i8, ptr %0, i64 32
  %14 = load i8, ptr %13, align 8, !tbaa !17, !range !26, !noundef !27
  %15 = trunc nuw i8 %14 to i1
  %16 = select i1 %15, ptr %2, ptr %1
  %17 = select i1 %15, ptr %1, ptr %2
  call void @llvm.lifetime.start.p0(i64 16, ptr nonnull %6) #14
  call void @llvm.lifetime.start.p0(i64 16, ptr nonnull %7) #14
  call void @llvm.lifetime.start.p0(i64 4, ptr nonnull %8) #14
  call void @llvm.lifetime.start.p0(i64 16, ptr nonnull %9) #14
  %18 = getelementptr inbounds nuw i8, ptr %16, i64 24
  %19 = load ptr, ptr %18, align 8, !tbaa !28
  %20 = getelementptr inbounds nuw i8, ptr %19, i64 48
  call void @llvm.memcpy.p0.p0.i64(ptr noundef nonnull align 4 dereferenceable(16) %9, ptr noundef nonnull align 4 dereferenceable(16) %20, i64 16, i1 false), !tbaa.struct !29
  %21 = getelementptr inbounds nuw i8, ptr %16, i64 8
  %22 = load ptr, ptr %21, align 8, !tbaa !31
  %23 = getelementptr inbounds nuw i8, ptr %22, i64 48
  %24 = load float, ptr %23, align 4, !tbaa !32
  %25 = getelementptr inbounds nuw i8, ptr %22, i64 32
  %26 = load float, ptr %25, align 4, !tbaa !32
  %27 = fmul float %24, %26
  %28 = tail call noundef float @_ZNK20btPersistentManifold27getContactBreakingThresholdEv(ptr noundef nonnull align 8 dereferenceable(880) %11)
  %29 = load ptr, ptr %10, align 8, !tbaa !16
  %30 = getelementptr inbounds nuw i8, ptr %4, i64 8
  store ptr %29, ptr %30, align 8, !tbaa !34
  %31 = call noundef zeroext i1 @_ZN29btSphereBoxCollisionAlgorithm17getSphereDistanceEPK24btCollisionObjectWrapperR9btVector3S4_RfRKS3_ff(ptr nonnull align 8 poison, ptr noundef %17, ptr noundef nonnull align 4 dereferenceable(16) %6, ptr noundef nonnull align 4 dereferenceable(16) %7, ptr noundef nonnull align 4 dereferenceable(4) %8, ptr noundef nonnull align 4 dereferenceable(16) %9, float noundef %27, float noundef %28)
  br i1 %31, label %32, label %37

32:                                               ; preds = %12
  %33 = load float, ptr %8, align 4, !tbaa !32
  %34 = load ptr, ptr %4, align 8, !tbaa !4
  %35 = getelementptr inbounds nuw i8, ptr %34, i64 32
  %36 = load ptr, ptr %35, align 8
  call void %36(ptr noundef nonnull align 8 dereferenceable(52) %4, ptr noundef nonnull align 4 dereferenceable(16) %7, ptr noundef nonnull align 4 dereferenceable(16) %6, float noundef %33)
  br label %37

37:                                               ; preds = %32, %12
  %38 = getelementptr inbounds nuw i8, ptr %0, i64 16
  %39 = load i8, ptr %38, align 8, !tbaa !7, !range !26, !noundef !27
  %40 = trunc nuw i8 %39 to i1
  br i1 %40, label %41, label %_ZN16btManifoldResult20refreshContactPointsEv.exit

41:                                               ; preds = %37
  %42 = load ptr, ptr %10, align 8, !tbaa !16
  %43 = getelementptr inbounds nuw i8, ptr %42, i64 856
  %44 = load i32, ptr %43, align 8, !tbaa !37
  %.not14 = icmp eq i32 %44, 0
  br i1 %.not14, label %_ZN16btManifoldResult20refreshContactPointsEv.exit, label %45

45:                                               ; preds = %41
  %46 = load ptr, ptr %30, align 8, !tbaa !34
  %47 = getelementptr inbounds nuw i8, ptr %46, i64 856
  %48 = load i32, ptr %47, align 8, !tbaa !37
  %.not.i = icmp eq i32 %48, 0
  br i1 %.not.i, label %_ZN16btManifoldResult20refreshContactPointsEv.exit, label %.sink.split.i

.sink.split.i:                                    ; preds = %45
  %49 = getelementptr inbounds nuw i8, ptr %46, i64 840
  %50 = load ptr, ptr %49, align 8, !tbaa !40
  %51 = getelementptr inbounds nuw i8, ptr %4, i64 16
  %52 = load ptr, ptr %51, align 8, !tbaa !41
  %53 = getelementptr inbounds nuw i8, ptr %52, i64 16
  %54 = load ptr, ptr %53, align 8, !tbaa !19
  %.not1.i = icmp eq ptr %50, %54
  %55 = getelementptr inbounds nuw i8, ptr %4, i64 24
  %56 = load ptr, ptr %55, align 8, !tbaa !42
  %57 = getelementptr inbounds nuw i8, ptr %56, i64 16
  %58 = load ptr, ptr %57, align 8, !tbaa !19
  %. = select i1 %.not1.i, ptr %58, ptr %54
  %.15 = select i1 %.not1.i, ptr %54, ptr %58
  %.sink.i = getelementptr inbounds nuw i8, ptr %.15, i64 8
  %59 = getelementptr inbounds nuw i8, ptr %., i64 8
  call void @_ZN20btPersistentManifold20refreshContactPointsERK11btTransformS2_(ptr noundef nonnull align 8 dereferenceable(880) %46, ptr noundef nonnull align 4 dereferenceable(64) %.sink.i, ptr noundef nonnull align 4 dereferenceable(64) %59)
  br label %_ZN16btManifoldResult20refreshContactPointsEv.exit

_ZN16btManifoldResult20refreshContactPointsEv.exit: ; preds = %.sink.split.i, %45, %41, %37
  call void @llvm.lifetime.end.p0(i64 16, ptr nonnull %9) #14
  call void @llvm.lifetime.end.p0(i64 4, ptr nonnull %8) #14
  call void @llvm.lifetime.end.p0(i64 16, ptr nonnull %7) #14
  call void @llvm.lifetime.end.p0(i64 16, ptr nonnull %6) #14
  br label %60

60:                                               ; preds = %5, %_ZN16btManifoldResult20refreshContactPointsEv.exit
  ret void
}